target datalayout = "e-m:e-p270:32:32-p271:32:32-p272:64:64-i64:64-i128:128-f80:128-n8:16:32:64-S128"
target triple = "x86_64-pc-linux-gnu"

%struct._stritem = type { ptr, ptr, ptr, i32, i32, i32, i16, i16, i8, i8, [0 x %union.anon] }
%union.anon = type { i64 }
%struct.assoc_iterator = type { i64, ptr, ptr, i8 }

@hashpower = dso_local global i32 16, align 4
@primary_hashtable = internal global ptr null, align 8

; Function Attrs: nounwind uwtable
define dso_local zeroext i1 @assoc_iterate(ptr noundef %0, ptr noundef %1) #0 {
  %3 = alloca i1, align 1
  %4 = alloca ptr, align 8
  %5 = alloca ptr, align 8
  %6 = alloca ptr, align 8
  %7 = alloca i32, align 4
  store ptr %0, ptr %4, align 8, !tbaa !33
  store ptr %1, ptr %5, align 8, !tbaa !8
  call void @llvm.lifetime.start.p0(i64 8, ptr %6) #9
  %8 = load ptr, ptr %4, align 8, !tbaa !33
  store ptr %8, ptr %6, align 8, !tbaa !42
  %9 = load ptr, ptr %5, align 8, !tbaa !8
  store ptr null, ptr %9, align 8, !tbaa !25
  %10 = load ptr, ptr %6, align 8, !tbaa !42
  %11 = getelementptr inbounds nuw %struct.assoc_iterator, ptr %10, i32 0, i32 3
  %12 = load i8, ptr %11, align 8, !tbaa !44, !range !23, !noundef !24
  %13 = trunc i8 %12 to i1
  br i1 %13, label %14, label %49

14:                                               ; preds = %2
  %15 = load ptr, ptr %6, align 8, !tbaa !42
  %16 = getelementptr inbounds nuw %struct.assoc_iterator, ptr %15, i32 0, i32 2
  %17 = load ptr, ptr %16, align 8, !tbaa !46
  %18 = icmp ne ptr %17, null
  br i1 %18, label %19, label %36

19:                                               ; preds = %14
  %20 = load ptr, ptr %6, align 8, !tbaa !42
  %21 = getelementptr inbounds nuw %struct.assoc_iterator, ptr %20, i32 0, i32 2
  %22 = load ptr, ptr %21, align 8, !tbaa !46
  %23 = load ptr, ptr %6, align 8, !tbaa !42
  %24 = getelementptr inbounds nuw %struct.assoc_iterator, ptr %23, i32 0, i32 1
  store ptr %22, ptr %24, align 8, !tbaa !47
  %25 = load ptr, ptr %6, align 8, !tbaa !42
  %26 = getelementptr inbounds nuw %struct.assoc_iterator, ptr %25, i32 0, i32 1
  %27 = load ptr, ptr %26, align 8, !tbaa !47
  %28 = getelementptr inbounds nuw %struct._stritem, ptr %27, i32 0, i32 2
  %29 = load ptr, ptr %28, align 8, !tbaa !25
  %30 = load ptr, ptr %6, align 8, !tbaa !42
  %31 = getelementptr inbounds nuw %struct.assoc_iterator, ptr %30, i32 0, i32 2
  store ptr %29, ptr %31, align 8, !tbaa !46
  %32 = load ptr, ptr %6, align 8, !tbaa !42
  %33 = getelementptr inbounds nuw %struct.assoc_iterator, ptr %32, i32 0, i32 1
  %34 = load ptr, ptr %33, align 8, !tbaa !47
  %35 = load ptr, ptr %5, align 8, !tbaa !8
  store ptr %34, ptr %35, align 8, !tbaa !25
  br label %48

36:                                               ; preds = %14
  %37 = load ptr, ptr %6, align 8, !tbaa !42
  %38 = getelementptr inbounds nuw %struct.assoc_iterator, ptr %37, i32 0, i32 0
  %39 = load i64, ptr %38, align 8, !tbaa !48
  %40 = trunc i64 %39 to i32
  call void @item_unlock(i32 noundef %40)
  %41 = load ptr, ptr %6, align 8, !tbaa !42
  %42 = getelementptr inbounds nuw %struct.assoc_iterator, ptr %41, i32 0, i32 0
  %43 = load i64, ptr %42, align 8, !tbaa !48
  %44 = add i64 %43, 1
  store i64 %44, ptr %42, align 8, !tbaa !48
  %45 = load ptr, ptr %6, align 8, !tbaa !42
  %46 = getelementptr inbounds nuw %struct.assoc_iterator, ptr %45, i32 0, i32 3
  store i8 0, ptr %46, align 8, !tbaa !44
  %47 = load ptr, ptr %5, align 8, !tbaa !8
  store ptr null, ptr %47, align 8, !tbaa !25
  br label %48

48:                                               ; preds = %36, %19
  store i1 true, ptr %3, align 1
  store i32 1, ptr %7, align 4
  br label %102

49:                                               ; preds = %2
  %50 = load ptr, ptr %6, align 8, !tbaa !42
  %51 = getelementptr inbounds nuw %struct.assoc_iterator, ptr %50, i32 0, i32 0
  %52 = load i64, ptr %51, align 8, !tbaa !48
  %53 = load i32, ptr @hashpower, align 4, !tbaa !4
  %54 = zext i32 %53 to i64
  %55 = shl i64 1, %54
  %56 = icmp ne i64 %52, %55
  br i1 %56, label %57, label %100

57:                                               ; preds = %49
  %58 = load ptr, ptr %6, align 8, !tbaa !42
  %59 = getelementptr inbounds nuw %struct.assoc_iterator, ptr %58, i32 0, i32 0
  %60 = load i64, ptr %59, align 8, !tbaa !48
  %61 = trunc i64 %60 to i32
  call void @item_lock(i32 noundef %61)
  %62 = load ptr, ptr %6, align 8, !tbaa !42
  %63 = getelementptr inbounds nuw %struct.assoc_iterator, ptr %62, i32 0, i32 3
  store i8 1, ptr %63, align 8, !tbaa !44
  %64 = load ptr, ptr @primary_hashtable, align 8, !tbaa !8
  %65 = load ptr, ptr %6, align 8, !tbaa !42
  %66 = getelementptr inbounds nuw %struct.assoc_iterator, ptr %65, i32 0, i32 0
  %67 = load i64, ptr %66, align 8, !tbaa !48
  %68 = getelementptr inbounds nuw ptr, ptr %64, i64 %67
  %69 = load ptr, ptr %68, align 8, !tbaa !25
  %70 = load ptr, ptr %6, align 8, !tbaa !42
  %71 = getelementptr inbounds nuw %struct.assoc_iterator, ptr %70, i32 0, i32 1
  store ptr %69, ptr %71, align 8, !tbaa !47
  %72 = load ptr, ptr %6, align 8, !tbaa !42
  %73 = getelementptr inbounds nuw %struct.assoc_iterator, ptr %72, i32 0, i32 1
  %74 = load ptr, ptr %73, align 8, !tbaa !47
  %75 = icmp ne ptr %74, null
  br i1 %75, label %76, label %88

76:                                               ; preds = %57
  %77 = load ptr, ptr %6, align 8, !tbaa !42
  %78 = getelementptr inbounds nuw %struct.assoc_iterator, ptr %77, i32 0, i32 1
  %79 = load ptr, ptr %78, align 8, !tbaa !47
  %80 = getelementptr inbounds nuw %struct._stritem, ptr %79, i32 0, i32 2
  %81 = load ptr, ptr %80, align 8, !tbaa !25
  %82 = load ptr, ptr %6, align 8, !tbaa !42
  %83 = getelementptr inbounds nuw %struct.assoc_iterator, ptr %82, i32 0, i32 2
  store ptr %81, ptr %83, align 8, !tbaa !46
  %84 = load ptr, ptr %6, align 8, !tbaa !42
  %85 = getelementptr inbounds nuw %struct.assoc_iterator, ptr %84, i32 0, i32 1
  %86 = load ptr, ptr %85, align 8, !tbaa !47
  %87 = load ptr, ptr %5, align 8, !tbaa !8
  store ptr %86, ptr %87, align 8, !tbaa !25
  br label %99

88:                                               ; preds = %57
  %89 = load ptr, ptr %6, align 8, !tbaa !42
  %90 = getelementptr inbounds nuw %struct.assoc_iterator, ptr %89, i32 0, i32 0
  %91 = load i64, ptr %90, align 8, !tbaa !48
  %92 = trunc i64 %91 to i32
  call void @item_unlock(i32 noundef %92)
  %93 = load ptr, ptr %6, align 8, !tbaa !42
  %94 = getelementptr inbounds nuw %struct.assoc_iterator, ptr %93, i32 0, i32 3
  store i8 0, ptr %94, align 8, !tbaa !44
  %95 = load ptr, ptr %6, align 8, !tbaa !42
  %96 = getelementptr inbounds nuw %struct.assoc_iterator, ptr %95, i32 0, i32 0
  %97 = load i64, ptr %96, align 8, !tbaa !48
  %98 = add i64 %97, 1
  store i64 %98, ptr %96, align 8, !tbaa !48
  br label %99

99:                                               ; preds = %88, %76
  br label %101

100:                                              ; preds = %49
  store i1 false, ptr %3, align 1
  store i32 1, ptr %7, align 4
  br label %102

101:                                              ; preds = %99
  store i1 true, ptr %3, align 1
  store i32 1, ptr %7, align 4
  br label %102

102:                                              ; preds = %101, %100, %48
  call void @llvm.lifetime.end.p0(i64 8, ptr %6) #9
  %103 = load i1, ptr %3, align 1
  ret i1 %103
}