; Function Attrs: nounwind uwtable
define dso_local noundef zeroext i1 @assoc_iterate(ptr noundef captures(none) %0, ptr noundef writeonly captures(none) initializes((0, 8)) %1) local_unnamed_addr #0 {
  store ptr null, ptr %1, align 8, !tbaa !20
  %3 = getelementptr inbounds nuw i8, ptr %0, i64 24
  %4 = load i8, ptr %3, align 8, !tbaa !38, !range !40, !noundef !41
  %5 = trunc nuw i8 %4 to i1
  br i1 %5, label %6, label %19

6:                                                ; preds = %2
  %7 = getelementptr inbounds nuw i8, ptr %0, i64 16
  %8 = load ptr, ptr %7, align 8, !tbaa !42
  %.not32 = icmp eq ptr %8, null
  br i1 %.not32, label %13, label %9

9:                                                ; preds = %6
  %10 = getelementptr inbounds nuw i8, ptr %0, i64 8
  store ptr %8, ptr %10, align 8, !tbaa !43
  %11 = getelementptr inbounds nuw i8, ptr %8, i64 16
  %12 = load ptr, ptr %11, align 8, !tbaa !20
  store ptr %12, ptr %7, align 8, !tbaa !42
  br label %18

13:                                               ; preds = %6
  %14 = load i64, ptr %0, align 8, !tbaa !44
  %15 = trunc i64 %14 to i32
  tail call void @item_unlock(i32 noundef %15) #18
  %16 = load i64, ptr %0, align 8, !tbaa !44
  %17 = add i64 %16, 1
  store i64 %17, ptr %0, align 8, !tbaa !44
  store i8 0, ptr %3, align 8, !tbaa !38
  br label %18

18:                                               ; preds = %13, %9
  store ptr %8, ptr %1, align 8, !tbaa !20
  br label %39

19:                                               ; preds = %2
  %20 = load i64, ptr %0, align 8, !tbaa !44
  %21 = load i32, ptr @hashpower, align 4, !tbaa !4
  %22 = zext nneg i32 %21 to i64
  %23 = shl nuw i64 1, %22
  %.not = icmp eq i64 %20, %23
  br i1 %.not, label %39, label %24

24:                                               ; preds = %19
  %25 = trunc i64 %20 to i32
  tail call void @item_lock(i32 noundef %25) #18
  store i8 1, ptr %3, align 8, !tbaa !38
  %26 = load ptr, ptr @primary_hashtable, align 8, !tbaa !8
  %27 = load i64, ptr %0, align 8, !tbaa !44
  %28 = getelementptr inbounds nuw ptr, ptr %26, i64 %27
  %29 = load ptr, ptr %28, align 8, !tbaa !20
  %30 = getelementptr inbounds nuw i8, ptr %0, i64 8
  store ptr %29, ptr %30, align 8, !tbaa !43
  %.not31 = icmp eq ptr %29, null
  br i1 %.not31, label %35, label %31

31:                                               ; preds = %24
  %32 = getelementptr inbounds nuw i8, ptr %29, i64 16
  %33 = load ptr, ptr %32, align 8, !tbaa !20
  %34 = getelementptr inbounds nuw i8, ptr %0, i64 16
  store ptr %33, ptr %34, align 8, !tbaa !42
  store ptr %29, ptr %1, align 8, !tbaa !20
  br label %39

35:                                               ; preds = %24
  %36 = trunc i64 %27 to i32
  tail call void @item_unlock(i32 noundef %36) #18
  store i8 0, ptr %3, align 8, !tbaa !38
  %37 = load i64, ptr %0, align 8, !tbaa !44
  %38 = add i64 %37, 1
  store i64 %38, ptr %0, align 8, !tbaa !44
  br label %39

39:                                               ; preds = %35, %31, %19, %18
  %.0 = phi i1 [ true, %18 ], [ false, %19 ], [ true, %31 ], [ true, %35 ]
  ret i1 %.0
}